; Function Attrs: mustprogress uwtable
define dso_local void @_ZN4Luau8unfreezeERNS_9TypeArenaE(ptr noundef nonnull align 8 captures(none) dereferenceable(88) %0) local_unnamed_addr #1 {
  %2 = load i8, ptr @_ZN5FFlag20DebugLuauFreezeArenaE, align 8
  %3 = trunc i8 %2 to i1
  br i1 %3, label %4, label %18

4:                                                ; preds = %1
  %5 = getelementptr inbounds nuw i8, ptr %0, i64 8
  %6 = load ptr, ptr %5, align 8
  %7 = getelementptr inbounds nuw i8, ptr %0, i64 16
  %8 = load ptr, ptr %7, align 8
  %.not7.i = icmp eq ptr %6, %8
  br i1 %.not7.i, label %_ZN4Luau14TypedAllocatorINS_4TypeEE8unfreezeEv.exit, label %.lr.ph.i

.lr.ph.i:                                         ; preds = %4, %.lr.ph.i
  %.sroa.04.08.i = phi ptr [ %10, %.lr.ph.i ], [ %6, %4 ]
  %9 = load ptr, ptr %.sroa.04.08.i, align 8
  tail call void @_ZN4Luau13pagedUnfreezeEPvm(ptr noundef %9, i64 noundef 32768)
  %10 = getelementptr inbounds nuw i8, ptr %.sroa.04.08.i, i64 8
  %.not.i = icmp eq ptr %10, %8
  br i1 %.not.i, label %_ZN4Luau14TypedAllocatorINS_4TypeEE8unfreezeEv.exit, label %.lr.ph.i

_ZN4Luau14TypedAllocatorINS_4TypeEE8unfreezeEv.exit: ; preds = %.lr.ph.i, %4
  store i8 0, ptr %0, align 8
  %11 = getelementptr inbounds nuw i8, ptr %0, i64 40
  %12 = getelementptr inbounds nuw i8, ptr %0, i64 48
  %13 = load ptr, ptr %12, align 8
  %14 = getelementptr inbounds nuw i8, ptr %0, i64 56
  %15 = load ptr, ptr %14, align 8
  %.not7.i3 = icmp eq ptr %13, %15
  br i1 %.not7.i3, label %_ZN4Luau14TypedAllocatorINS_11TypePackVarEE8unfreezeEv.exit, label %.lr.ph.i4

.lr.ph.i4:                                        ; preds = %_ZN4Luau14TypedAllocatorINS_4TypeEE8unfreezeEv.exit, %.lr.ph.i4
  %.sroa.04.08.i5 = phi ptr [ %17, %.lr.ph.i4 ], [ %13, %_ZN4Luau14TypedAllocatorINS_4TypeEE8unfreezeEv.exit ]
  %16 = load ptr, ptr %.sroa.04.08.i5, align 8
  tail call void @_ZN4Luau13pagedUnfreezeEPvm(ptr noundef %16, i64 noundef 32768)
  %17 = getelementptr inbounds nuw i8, ptr %.sroa.04.08.i5, i64 8
  %.not.i6 = icmp eq ptr %17, %15
  br i1 %.not.i6, label %_ZN4Luau14TypedAllocatorINS_11TypePackVarEE8unfreezeEv.exit, label %.lr.ph.i4

_ZN4Luau14TypedAllocatorINS_11TypePackVarEE8unfreezeEv.exit: ; preds = %.lr.ph.i4, %_ZN4Luau14TypedAllocatorINS_4TypeEE8unfreezeEv.exit
  store i8 0, ptr %11, align 8
  br label %18

18:                                               ; preds = %1, %_ZN4Luau14TypedAllocatorINS_11TypePackVarEE8unfreezeEv.exit
  ret void
}